target datalayout = "e-m:e-p270:32:32-p271:32:32-p272:64:64-i64:64-i128:128-f80:128-n8:16:32:64-S128"
target triple = "x86_64-pc-linux-gnu"

%struct.GVJ_s = type { ptr, ptr, ptr, ptr, ptr, ptr, i32, ptr, ptr, ptr, ptr, i64, i64, ptr, i32, %struct.gvplugin_active_render_s, %struct.gvplugin_active_device_s, %struct.gvplugin_active_loadimage_t, ptr, %struct.pointf_s, i8, ptr, i32, ptr, i8, ptr, i32, i32, i32, %struct.point, %struct.point, %struct.point, %struct.point, %struct.point, i32, %struct.boxf, %struct.pointf_s, %struct.boxf, %struct.boxf, %struct.pointf_s, %struct.pointf_s, double, i32, %struct.pointf_s, %struct.boxf, %struct.pointf_s, %struct.pointf_s, i32, i32, %struct.box, %struct.box, %struct.pointf_s, %struct.pointf_s, %struct.pointf_s, i8, i8, i8, i8, i8, i8, %struct.pointf_s, %struct.pointf_s, ptr, ptr, ptr, ptr, ptr, ptr, i64, ptr }
%struct.gvplugin_active_render_s = type { ptr, i32, ptr, ptr }
%struct.gvplugin_active_device_s = type { ptr, i32, ptr, ptr }
%struct.gvplugin_active_loadimage_t = type { ptr, i32, ptr }
%struct.point = type { i32, i32 }
%struct.boxf = type { %struct.pointf_s, %struct.pointf_s }
%struct.box = type { %struct.point, %struct.point }
%struct.pointf_s = type { double, double }
%struct.obj_state_s = type { ptr, i32, %union.anon, i32, %struct.color_s, %struct.color_s, %struct.color_s, i32, double, i32, i32, double, ptr, double, double, double, ptr, ptr, ptr, ptr, ptr, ptr, ptr, ptr, ptr, ptr, ptr, ptr, ptr, ptr, ptr, ptr, ptr, i16, i32, i64, ptr, i64, ptr, ptr, i32, ptr, i32, ptr }
%union.anon = type { ptr }
%struct.color_s = type { %union.anon.0, i32 }
%union.anon.0 = type { [4 x double] }
%struct.colorsegs_t = type { ptr, i64, i64, i64 }
%struct.colorseg_t = type { ptr, double, i8 }

; Function Attrs: nounwind uwtable
define internal void @freeSeg(ptr noundef byval(%struct.colorseg_t) align 8 %0) #0 {
  %2 = getelementptr inbounds nuw %struct.colorseg_t, ptr %0, i32 0, i32 0
  %3 = load ptr, ptr %2, align 8, !tbaa !107
  call void @free(ptr noundef %3) #15
  ret void
}

; Function Attrs: inlinehint nounwind uwtable
define internal void @colorsegs_clear(ptr noundef %0) #3 {
  %2 = alloca ptr, align 8
  %3 = alloca i64, align 8
  %4 = alloca %struct.colorseg_t, align 8
  store ptr %0, ptr %2, align 8, !tbaa !8
  call void @llvm.lifetime.start.p0(i64 8, ptr %3) #15
  store i64 0, ptr %3, align 8, !tbaa !49
  br label %5

5:                                                ; preds = %18, %1
  %6 = load i64, ptr %3, align 8, !tbaa !49
  %7 = load ptr, ptr %2, align 8, !tbaa !8
  %8 = getelementptr inbounds nuw %struct.colorsegs_t, ptr %7, i32 0, i32 2
  %9 = load i64, ptr %8, align 8, !tbaa !127
  %10 = icmp ult i64 %6, %9
  br i1 %10, label %12, label %11

11:                                               ; preds = %5
  call void @llvm.lifetime.end.p0(i64 8, ptr %3) #15
  br label %21

12:                                               ; preds = %5
  %13 = load ptr, ptr %2, align 8, !tbaa !8
  %14 = load i64, ptr %3, align 8, !tbaa !49
  call void @colorsegs_get(ptr dead_on_unwind writable sret(%struct.colorseg_t) align 8 %4, ptr noundef %13, i64 noundef %14)
  call void @freeSeg(ptr noundef byval(%struct.colorseg_t) align 8 %4)
  br label %15

15:                                               ; preds = %12
  br label %16

16:                                               ; preds = %15
  br label %17

17:                                               ; preds = %16
  br label %18

18:                                               ; preds = %17
  %19 = load i64, ptr %3, align 8, !tbaa !49
  %20 = add i64 %19, 1
  store i64 %20, ptr %3, align 8, !tbaa !49
  br label %5, !llvm.loop !358

21:                                               ; preds = %11
  %22 = load ptr, ptr %2, align 8, !tbaa !8
  %23 = getelementptr inbounds nuw %struct.colorsegs_t, ptr %22, i32 0, i32 2
  store i64 0, ptr %23, align 8, !tbaa !127
  %24 = load ptr, ptr %2, align 8, !tbaa !8
  %25 = getelementptr inbounds nuw %struct.colorsegs_t, ptr %24, i32 0, i32 1
  store i64 0, ptr %25, align 8, !tbaa !130
  ret void
}

; Function Attrs: inlinehint nounwind uwtable
define internal void @colorsegs_free(ptr noundef %0) #3 {
  %2 = alloca ptr, align 8
  store ptr %0, ptr %2, align 8, !tbaa !8
  %3 = load ptr, ptr %2, align 8, !tbaa !8
  call void @colorsegs_clear(ptr noundef %3)
  %4 = load ptr, ptr %2, align 8, !tbaa !8
  %5 = getelementptr inbounds nuw %struct.colorsegs_t, ptr %4, i32 0, i32 0
  %6 = load ptr, ptr %5, align 8, !tbaa !129
  call void @free(ptr noundef %6) #15
  %7 = load ptr, ptr %2, align 8, !tbaa !8
  call void @llvm.memset.p0.i64(ptr align 8 %7, i8 0, i64 32, i1 false)
  ret void
}

; Function Attrs: inlinehint nounwind uwtable
define internal void @colorsegs_get(ptr dead_on_unwind noalias writable sret(%struct.colorseg_t) align 8 %0, ptr noundef %1, i64 noundef %2) #3 {
  %4 = alloca ptr, align 8
  %5 = alloca i64, align 8
  store ptr %1, ptr %4, align 8, !tbaa !8
  store i64 %2, ptr %5, align 8, !tbaa !49
  %6 = load ptr, ptr %4, align 8, !tbaa !8
  %7 = getelementptr inbounds nuw %struct.colorsegs_t, ptr %6, i32 0, i32 0
  %8 = load ptr, ptr %7, align 8, !tbaa !129
  %9 = load ptr, ptr %4, align 8, !tbaa !8
  %10 = getelementptr inbounds nuw %struct.colorsegs_t, ptr %9, i32 0, i32 1
  %11 = load i64, ptr %10, align 8, !tbaa !130
  %12 = load i64, ptr %5, align 8, !tbaa !49
  %13 = add i64 %11, %12
  %14 = load ptr, ptr %4, align 8, !tbaa !8
  %15 = getelementptr inbounds nuw %struct.colorsegs_t, ptr %14, i32 0, i32 3
  %16 = load i64, ptr %15, align 8, !tbaa !131
  %17 = urem i64 %13, %16
  %18 = getelementptr inbounds nuw %struct.colorseg_t, ptr %8, i64 %17
  call void @llvm.memcpy.p0.p0.i64(ptr align 8 %0, ptr align 8 %18, i64 24, i1 false), !tbaa.struct !132
  ret void
}

; Function Attrs: inlinehint nounwind uwtable
define internal i64 @colorsegs_size(ptr noundef %0) #3 {
  %2 = alloca ptr, align 8
  store ptr %0, ptr %2, align 8, !tbaa !8
  %3 = load ptr, ptr %2, align 8, !tbaa !8
  %4 = getelementptr inbounds nuw %struct.colorsegs_t, ptr %3, i32 0, i32 2
  %5 = load i64, ptr %4, align 8, !tbaa !127
  ret i64 %5
}

; Function Attrs: nounwind uwtable
define i32 @stripedBox(ptr noundef %0, ptr noundef %1, ptr noundef %2, i32 noundef %3) #0 {
  %5 = alloca i32, align 4
  %6 = alloca ptr, align 8
  %7 = alloca ptr, align 8
  %8 = alloca ptr, align 8
  %9 = alloca i32, align 4
  %10 = alloca %struct.colorsegs_t, align 8
  %11 = alloca i32, align 4
  %12 = alloca double, align 8
  %13 = alloca [4 x %struct.pointf_s], align 16
  %14 = alloca double, align 8
  %15 = alloca double, align 8
  %16 = alloca i32, align 4
  %17 = alloca i64, align 8
  %18 = alloca %struct.colorseg_t, align 8
  store ptr %0, ptr %6, align 8, !tbaa !12
  store ptr %1, ptr %7, align 8, !tbaa !105
  store ptr %2, ptr %8, align 8, !tbaa !9
  store i32 %3, ptr %9, align 4, !tbaa !44
  call void @llvm.lifetime.start.p0(i64 32, ptr %10) #15
  call void @llvm.lifetime.start.p0(i64 4, ptr %11) #15
  call void @llvm.lifetime.start.p0(i64 8, ptr %12) #15
  call void @llvm.lifetime.start.p0(i64 64, ptr %13) #15
  call void @llvm.lifetime.start.p0(i64 8, ptr %14) #15
  call void @llvm.lifetime.start.p0(i64 8, ptr %15) #15
  %19 = load ptr, ptr %6, align 8, !tbaa !12
  %20 = getelementptr inbounds nuw %struct.GVJ_s, ptr %19, i32 0, i32 4
  %21 = load ptr, ptr %20, align 8, !tbaa !16
  %22 = getelementptr inbounds nuw %struct.obj_state_s, ptr %21, i32 0, i32 11
  %23 = load double, ptr %22, align 8, !tbaa !47
  store double %23, ptr %15, align 8, !tbaa !106
  %24 = load ptr, ptr %8, align 8, !tbaa !9
  %25 = call i32 @parseSegs(ptr noundef %24, ptr noundef %10)
  store i32 %25, ptr %11, align 4, !tbaa !44
  %26 = load i32, ptr %11, align 4, !tbaa !44
  %27 = icmp eq i32 %26, 1
  br i1 %27, label %31, label %28

28:                                               ; preds = %4
  %29 = load i32, ptr %11, align 4, !tbaa !44
  %30 = icmp eq i32 %29, 2
  br i1 %30, label %31, label %33

31:                                               ; preds = %28, %4
  %32 = load i32, ptr %11, align 4, !tbaa !44
  store i32 %32, ptr %5, align 4
  store i32 1, ptr %16, align 4
  br label %152

33:                                               ; preds = %28
  %34 = load i32, ptr %9, align 4, !tbaa !44
  %35 = icmp ne i32 %34, 0
  br i1 %35, label %36, label %49

36:                                               ; preds = %33
  %37 = getelementptr inbounds [4 x %struct.pointf_s], ptr %13, i64 0, i64 0
  %38 = load ptr, ptr %7, align 8, !tbaa !105
  %39 = getelementptr inbounds %struct.pointf_s, ptr %38, i64 2
  call void @llvm.memcpy.p0.p0.i64(ptr align 16 %37, ptr align 8 %39, i64 16, i1 false), !tbaa.struct !134
  %40 = getelementptr inbounds [4 x %struct.pointf_s], ptr %13, i64 0, i64 1
  %41 = load ptr, ptr %7, align 8, !tbaa !105
  %42 = getelementptr inbounds %struct.pointf_s, ptr %41, i64 3
  call void @llvm.memcpy.p0.p0.i64(ptr align 16 %40, ptr align 8 %42, i64 16, i1 false), !tbaa.struct !134
  %43 = getelementptr inbounds [4 x %struct.pointf_s], ptr %13, i64 0, i64 2
  %44 = load ptr, ptr %7, align 8, !tbaa !105
  %45 = getelementptr inbounds %struct.pointf_s, ptr %44, i64 0
  call void @llvm.memcpy.p0.p0.i64(ptr align 16 %43, ptr align 8 %45, i64 16, i1 false), !tbaa.struct !134
  %46 = getelementptr inbounds [4 x %struct.pointf_s], ptr %13, i64 0, i64 3
  %47 = load ptr, ptr %7, align 8, !tbaa !105
  %48 = getelementptr inbounds %struct.pointf_s, ptr %47, i64 1
  call void @llvm.memcpy.p0.p0.i64(ptr align 16 %46, ptr align 8 %48, i64 16, i1 false), !tbaa.struct !134
  br label %62

49:                                               ; preds = %33
  %50 = getelementptr inbounds [4 x %struct.pointf_s], ptr %13, i64 0, i64 0
  %51 = load ptr, ptr %7, align 8, !tbaa !105
  %52 = getelementptr inbounds %struct.pointf_s, ptr %51, i64 0
  call void @llvm.memcpy.p0.p0.i64(ptr align 16 %50, ptr align 8 %52, i64 16, i1 false), !tbaa.struct !134
  %53 = getelementptr inbounds [4 x %struct.pointf_s], ptr %13, i64 0, i64 1
  %54 = load ptr, ptr %7, align 8, !tbaa !105
  %55 = getelementptr inbounds %struct.pointf_s, ptr %54, i64 1
  call void @llvm.memcpy.p0.p0.i64(ptr align 16 %53, ptr align 8 %55, i64 16, i1 false), !tbaa.struct !134
  %56 = getelementptr inbounds [4 x %struct.pointf_s], ptr %13, i64 0, i64 2
  %57 = load ptr, ptr %7, align 8, !tbaa !105
  %58 = getelementptr inbounds %struct.pointf_s, ptr %57, i64 2
  call void @llvm.memcpy.p0.p0.i64(ptr align 16 %56, ptr align 8 %58, i64 16, i1 false), !tbaa.struct !134
  %59 = getelementptr inbounds [4 x %struct.pointf_s], ptr %13, i64 0, i64 3
  %60 = load ptr, ptr %7, align 8, !tbaa !105
  %61 = getelementptr inbounds %struct.pointf_s, ptr %60, i64 3
  call void @llvm.memcpy.p0.p0.i64(ptr align 16 %59, ptr align 8 %61, i64 16, i1 false), !tbaa.struct !134
  br label %62

62:                                               ; preds = %49, %36
  %63 = getelementptr inbounds [4 x %struct.pointf_s], ptr %13, i64 0, i64 1
  %64 = getelementptr inbounds nuw %struct.pointf_s, ptr %63, i32 0, i32 0
  %65 = load double, ptr %64, align 16, !tbaa !110
  store double %65, ptr %14, align 8, !tbaa !106
  %66 = getelementptr inbounds [4 x %struct.pointf_s], ptr %13, i64 0, i64 1
  %67 = getelementptr inbounds nuw %struct.pointf_s, ptr %66, i32 0, i32 0
  %68 = load double, ptr %67, align 16, !tbaa !110
  %69 = getelementptr inbounds [4 x %struct.pointf_s], ptr %13, i64 0, i64 0
  %70 = getelementptr inbounds nuw %struct.pointf_s, ptr %69, i32 0, i32 0
  %71 = load double, ptr %70, align 16, !tbaa !110
  %72 = fsub double %68, %71
  store double %72, ptr %12, align 8, !tbaa !106
  %73 = getelementptr inbounds [4 x %struct.pointf_s], ptr %13, i64 0, i64 0
  %74 = getelementptr inbounds nuw %struct.pointf_s, ptr %73, i32 0, i32 0
  %75 = load double, ptr %74, align 16, !tbaa !110
  %76 = getelementptr inbounds [4 x %struct.pointf_s], ptr %13, i64 0, i64 2
  %77 = getelementptr inbounds nuw %struct.pointf_s, ptr %76, i32 0, i32 0
  store double %75, ptr %77, align 16, !tbaa !110
  %78 = getelementptr inbounds [4 x %struct.pointf_s], ptr %13, i64 0, i64 1
  %79 = getelementptr inbounds nuw %struct.pointf_s, ptr %78, i32 0, i32 0
  store double %75, ptr %79, align 16, !tbaa !110
  %80 = load double, ptr %15, align 8, !tbaa !106
  %81 = fcmp ogt double %80, 5.000000e-01
  br i1 %81, label %82, label %84

82:                                               ; preds = %62
  %83 = load ptr, ptr %6, align 8, !tbaa !12
  call void @gvrender_set_penwidth(ptr noundef %83, double noundef 5.000000e-01)
  br label %84

84:                                               ; preds = %82, %62
  call void @llvm.lifetime.start.p0(i64 8, ptr %17) #15
  store i64 0, ptr %17, align 8, !tbaa !49
  br label %85

85:                                               ; preds = %140, %84
  %86 = load i64, ptr %17, align 8, !tbaa !49
  %87 = call i64 @colorsegs_size(ptr noundef %10)
  %88 = icmp ult i64 %86, %87
  br i1 %88, label %90, label %89

89:                                               ; preds = %85
  store i32 2, ptr %16, align 4
  br label %143

90:                                               ; preds = %85
  call void @llvm.lifetime.start.p0(i64 24, ptr %18) #15
  %91 = load i64, ptr %17, align 8, !tbaa !49
  call void @colorsegs_get(ptr dead_on_unwind writable sret(%struct.colorseg_t) align 8 %18, ptr noundef %10, i64 noundef %91)
  %92 = getelementptr inbounds nuw %struct.colorseg_t, ptr %18, i32 0, i32 0
  %93 = load ptr, ptr %92, align 8, !tbaa !107
  %94 = icmp eq ptr %93, null
  br i1 %94, label %95, label %96

95:                                               ; preds = %90
  store i32 2, ptr %16, align 4
  br label %137

96:                                               ; preds = %90
  %97 = getelementptr inbounds nuw %struct.colorseg_t, ptr %18, i32 0, i32 1
  %98 = load double, ptr %97, align 8, !tbaa !109
  %99 = fcmp ole double %98, 0.000000e+00
  br i1 %99, label %100, label %101

100:                                              ; preds = %96
  store i32 4, ptr %16, align 4
  br label %137

101:                                              ; preds = %96
  %102 = load ptr, ptr %6, align 8, !tbaa !12
  %103 = getelementptr inbounds nuw %struct.colorseg_t, ptr %18, i32 0, i32 0
  %104 = load ptr, ptr %103, align 8, !tbaa !107
  call void @gvrender_set_fillcolor(ptr noundef %102, ptr noundef %104)
  %105 = load i64, ptr %17, align 8, !tbaa !49
  %106 = add i64 %105, 1
  %107 = call i64 @colorsegs_size(ptr noundef %10)
  %108 = icmp eq i64 %106, %107
  br i1 %108, label %109, label %115

109:                                              ; preds = %101
  %110 = load double, ptr %14, align 8, !tbaa !106
  %111 = getelementptr inbounds [4 x %struct.pointf_s], ptr %13, i64 0, i64 2
  %112 = getelementptr inbounds nuw %struct.pointf_s, ptr %111, i32 0, i32 0
  store double %110, ptr %112, align 16, !tbaa !110
  %113 = getelementptr inbounds [4 x %struct.pointf_s], ptr %13, i64 0, i64 1
  %114 = getelementptr inbounds nuw %struct.pointf_s, ptr %113, i32 0, i32 0
  store double %110, ptr %114, align 16, !tbaa !110
  br label %127

115:                                              ; preds = %101
  %116 = getelementptr inbounds [4 x %struct.pointf_s], ptr %13, i64 0, i64 0
  %117 = getelementptr inbounds nuw %struct.pointf_s, ptr %116, i32 0, i32 0
  %118 = load double, ptr %117, align 16, !tbaa !110
  %119 = load double, ptr %12, align 8, !tbaa !106
  %120 = getelementptr inbounds nuw %struct.colorseg_t, ptr %18, i32 0, i32 1
  %121 = load double, ptr %120, align 8, !tbaa !109
  %122 = call double @llvm.fmuladd.f64(double %119, double %121, double %118)
  %123 = getelementptr inbounds [4 x %struct.pointf_s], ptr %13, i64 0, i64 2
  %124 = getelementptr inbounds nuw %struct.pointf_s, ptr %123, i32 0, i32 0
  store double %122, ptr %124, align 16, !tbaa !110
  %125 = getelementptr inbounds [4 x %struct.pointf_s], ptr %13, i64 0, i64 1
  %126 = getelementptr inbounds nuw %struct.pointf_s, ptr %125, i32 0, i32 0
  store double %122, ptr %126, align 16, !tbaa !110
  br label %127

127:                                              ; preds = %115, %109
  %128 = load ptr, ptr %6, align 8, !tbaa !12
  %129 = getelementptr inbounds [4 x %struct.pointf_s], ptr %13, i64 0, i64 0
  call void @gvrender_polygon(ptr noundef %128, ptr noundef %129, i64 noundef 4, i32 noundef 1)
  %130 = getelementptr inbounds [4 x %struct.pointf_s], ptr %13, i64 0, i64 1
  %131 = getelementptr inbounds nuw %struct.pointf_s, ptr %130, i32 0, i32 0
  %132 = load double, ptr %131, align 16, !tbaa !110
  %133 = getelementptr inbounds [4 x %struct.pointf_s], ptr %13, i64 0, i64 3
  %134 = getelementptr inbounds nuw %struct.pointf_s, ptr %133, i32 0, i32 0
  store double %132, ptr %134, align 16, !tbaa !110
  %135 = getelementptr inbounds [4 x %struct.pointf_s], ptr %13, i64 0, i64 0
  %136 = getelementptr inbounds nuw %struct.pointf_s, ptr %135, i32 0, i32 0
  store double %132, ptr %136, align 16, !tbaa !110
  store i32 0, ptr %16, align 4
  br label %137

137:                                              ; preds = %127, %100, %95
  call void @llvm.lifetime.end.p0(i64 24, ptr %18) #15
  %138 = load i32, ptr %16, align 4
  switch i32 %138, label %143 [
    i32 0, label %139
    i32 4, label %140
  ]

139:                                              ; preds = %137
  br label %140

140:                                              ; preds = %139, %137
  %141 = load i64, ptr %17, align 8, !tbaa !49
  %142 = add i64 %141, 1
  store i64 %142, ptr %17, align 8, !tbaa !49
  br label %85, !llvm.loop !135

143:                                              ; preds = %137, %89
  call void @llvm.lifetime.end.p0(i64 8, ptr %17) #15
  br label %144

144:                                              ; preds = %143
  %145 = load double, ptr %15, align 8, !tbaa !106
  %146 = fcmp ogt double %145, 5.000000e-01
  br i1 %146, label %147, label %150

147:                                              ; preds = %144
  %148 = load ptr, ptr %6, align 8, !tbaa !12
  %149 = load double, ptr %15, align 8, !tbaa !106
  call void @gvrender_set_penwidth(ptr noundef %148, double noundef %149)
  br label %150

150:                                              ; preds = %147, %144
  call void @colorsegs_free(ptr noundef %10)
  %151 = load i32, ptr %11, align 4, !tbaa !44
  store i32 %151, ptr %5, align 4
  store i32 1, ptr %16, align 4
  br label %152

152:                                              ; preds = %150, %31
  call void @llvm.lifetime.end.p0(i64 8, ptr %15) #15
  call void @llvm.lifetime.end.p0(i64 8, ptr %14) #15
  call void @llvm.lifetime.end.p0(i64 64, ptr %13) #15
  call void @llvm.lifetime.end.p0(i64 8, ptr %12) #15
  call void @llvm.lifetime.end.p0(i64 4, ptr %11) #15
  call void @llvm.lifetime.end.p0(i64 32, ptr %10) #15
  %153 = load i32, ptr %5, align 4
  ret i32 %153
}