; Function Attrs: nounwind uwtable
define i32 @stripedBox(ptr noundef %0, ptr noundef readonly captures(none) %1, ptr noundef %2, i32 noundef %3) local_unnamed_addr #0 {
  %5 = alloca %struct.colorsegs_t, align 8
  %6 = alloca [4 x %struct.pointf_s], align 16
  call void @llvm.lifetime.start.p0(i64 32, ptr nonnull %5) #27
  call void @llvm.lifetime.start.p0(i64 64, ptr nonnull %6) #27
  %7 = getelementptr inbounds nuw i8, ptr %0, i64 32
  %8 = load ptr, ptr %7, align 8, !tbaa !9
  %9 = getelementptr inbounds nuw i8, ptr %8, i64 176
  %10 = load double, ptr %9, align 8, !tbaa !42
  %11 = call fastcc i32 @parseSegs(ptr noundef %2, ptr noundef %5)
  %12 = add i32 %11, -1
  %or.cond = icmp ult i32 %12, 2
  br i1 %or.cond, label %67, label %13

13:                                               ; preds = %4
  %.not = icmp eq i32 %3, 0
  %14 = getelementptr inbounds nuw i8, ptr %6, i64 48
  br i1 %.not, label %20, label %15

15:                                               ; preds = %13
  %16 = getelementptr inbounds nuw i8, ptr %1, i64 32
  call void @llvm.memcpy.p0.p0.i64(ptr noundef nonnull align 16 dereferenceable(16) %6, ptr noundef nonnull align 8 dereferenceable(16) %16, i64 16, i1 false), !tbaa.struct !126
  %17 = getelementptr inbounds nuw i8, ptr %6, i64 16
  %18 = getelementptr inbounds nuw i8, ptr %1, i64 48
  call void @llvm.memcpy.p0.p0.i64(ptr noundef nonnull align 16 dereferenceable(16) %17, ptr noundef nonnull align 8 dereferenceable(16) %18, i64 16, i1 false), !tbaa.struct !126
  %19 = getelementptr inbounds nuw i8, ptr %6, i64 32
  call void @llvm.memcpy.p0.p0.i64(ptr noundef nonnull align 16 dereferenceable(16) %19, ptr noundef nonnull align 8 dereferenceable(16) %1, i64 16, i1 false), !tbaa.struct !126
  br label %25

20:                                               ; preds = %13
  call void @llvm.memcpy.p0.p0.i64(ptr noundef nonnull align 16 dereferenceable(16) %6, ptr noundef nonnull align 8 dereferenceable(16) %1, i64 16, i1 false), !tbaa.struct !126
  %21 = getelementptr inbounds nuw i8, ptr %6, i64 16
  %22 = getelementptr inbounds nuw i8, ptr %1, i64 16
  call void @llvm.memcpy.p0.p0.i64(ptr noundef nonnull align 16 dereferenceable(16) %21, ptr noundef nonnull align 8 dereferenceable(16) %22, i64 16, i1 false), !tbaa.struct !126
  %23 = getelementptr inbounds nuw i8, ptr %6, i64 32
  %24 = getelementptr inbounds nuw i8, ptr %1, i64 32
  call void @llvm.memcpy.p0.p0.i64(ptr noundef nonnull align 16 dereferenceable(16) %23, ptr noundef nonnull align 8 dereferenceable(16) %24, i64 16, i1 false), !tbaa.struct !126
  br label %25

25:                                               ; preds = %20, %15
  %.sink45 = phi i64 [ 48, %20 ], [ 16, %15 ]
  %26 = getelementptr inbounds nuw i8, ptr %1, i64 %.sink45
  call void @llvm.memcpy.p0.p0.i64(ptr noundef nonnull align 16 dereferenceable(16) %14, ptr noundef nonnull align 8 dereferenceable(16) %26, i64 16, i1 false)
  %27 = getelementptr inbounds nuw i8, ptr %6, i64 16
  %28 = load double, ptr %27, align 16, !tbaa !127
  %29 = load double, ptr %6, align 16, !tbaa !127
  %30 = fsub double %28, %29
  %31 = getelementptr inbounds nuw i8, ptr %6, i64 32
  store double %29, ptr %31, align 16, !tbaa !127
  store double %29, ptr %27, align 16, !tbaa !127
  %32 = fcmp ogt double %10, 5.000000e-01
  br i1 %32, label %33, label %34

33:                                               ; preds = %25
  tail call void @gvrender_set_penwidth(ptr noundef nonnull %0, double noundef 5.000000e-01) #27
  br label %34

34:                                               ; preds = %33, %25
  %35 = getelementptr inbounds nuw i8, ptr %5, i64 16
  %.val35 = load i64, ptr %35, align 8, !tbaa !100
  %.not41 = icmp eq i64 %.val35, 0
  br i1 %.not41, label %._crit_edge, label %.lr.ph

.lr.ph:                                           ; preds = %34
  %36 = load ptr, ptr %5, align 8, !tbaa !102, !noalias !128
  %37 = getelementptr inbounds nuw i8, ptr %5, i64 8
  %38 = load i64, ptr %37, align 8, !tbaa !106, !noalias !128
  %39 = getelementptr inbounds nuw i8, ptr %5, i64 24
  %40 = load i64, ptr %39, align 8, !tbaa !107, !noalias !128
  %41 = getelementptr inbounds nuw i8, ptr %6, i64 48
  br label %42

42:                                               ; preds = %.lr.ph, %55
  %.038 = phi i64 [ 0, %.lr.ph ], [ %.pre-phi, %55 ]
  %43 = add i64 %38, %.038
  %44 = urem i64 %43, %40
  %45 = getelementptr inbounds nuw %struct.colorseg_t, ptr %36, i64 %44
  %.sroa.0.0.copyload = load ptr, ptr %45, align 8, !tbaa !97
  %.sroa.4.0..sroa_idx = getelementptr inbounds nuw i8, ptr %45, i64 8
  %.sroa.4.0.copyload = load double, ptr %.sroa.4.0..sroa_idx, align 8, !tbaa !108
  %46 = icmp eq ptr %.sroa.0.0.copyload, null
  br i1 %46, label %._crit_edge, label %47

47:                                               ; preds = %42
  %48 = fcmp ugt double %.sroa.4.0.copyload, 0.000000e+00
  br i1 %48, label %49, label %._crit_edge43

._crit_edge43:                                    ; preds = %47
  %.pre44 = add nuw i64 %.038, 1
  br label %55

49:                                               ; preds = %47
  call void @gvrender_set_fillcolor(ptr noundef %0, ptr noundef nonnull %.sroa.0.0.copyload) #27
  %50 = add nuw i64 %.038, 1
  %51 = icmp eq i64 %50, %.val35
  %52 = load double, ptr %6, align 16
  %53 = call double @llvm.fmuladd.f64(double %30, double %.sroa.4.0.copyload, double %52)
  %storemerge = select i1 %51, double %28, double %53
  store double %storemerge, ptr %31, align 16, !tbaa !127
  store double %storemerge, ptr %27, align 16, !tbaa !127
  call void @gvrender_polygon(ptr noundef %0, ptr noundef nonnull %6, i64 noundef 4, i32 noundef 1) #27
  %54 = load double, ptr %27, align 16, !tbaa !127
  store double %54, ptr %41, align 16, !tbaa !127
  store double %54, ptr %6, align 16, !tbaa !127
  br label %55

55:                                               ; preds = %._crit_edge43, %49
  %.pre-phi = phi i64 [ %.pre44, %._crit_edge43 ], [ %50, %49 ]
  %exitcond.not = icmp eq i64 %.pre-phi, %.val35
  br i1 %exitcond.not, label %._crit_edge, label %42, !llvm.loop !131

._crit_edge:                                      ; preds = %55, %42, %34
  br i1 %32, label %56, label %57

56:                                               ; preds = %._crit_edge
  call void @gvrender_set_penwidth(ptr noundef %0, double noundef %10) #27
  br label %57

57:                                               ; preds = %56, %._crit_edge
  %.pre = load ptr, ptr %5, align 8, !tbaa !102
  br i1 %.not41, label %colorsegs_free.exit, label %.lr.ph.i.i

.lr.ph.i.i:                                       ; preds = %57
  %58 = getelementptr inbounds nuw i8, ptr %5, i64 8
  %59 = getelementptr inbounds nuw i8, ptr %5, i64 24
  %60 = load i64, ptr %58, align 8, !tbaa !106, !noalias !132
  %61 = load i64, ptr %59, align 8, !tbaa !107, !noalias !132
  br label %62

62:                                               ; preds = %62, %.lr.ph.i.i
  %.06.i.i = phi i64 [ 0, %.lr.ph.i.i ], [ %66, %62 ]
  %63 = add i64 %60, %.06.i.i
  %64 = urem i64 %63, %61
  %65 = getelementptr inbounds nuw %struct.colorseg_t, ptr %.pre, i64 %64
  %.sroa.0.0.copyload.i.i = load ptr, ptr %65, align 8, !tbaa !97
  call void @free(ptr noundef %.sroa.0.0.copyload.i.i) #27
  %66 = add nuw i64 %.06.i.i, 1
  %exitcond42.not = icmp eq i64 %66, %.val35
  br i1 %exitcond42.not, label %colorsegs_free.exit, label %62, !llvm.loop !117

colorsegs_free.exit:                              ; preds = %62, %57
  call void @free(ptr noundef %.pre) #27
  br label %67

67:                                               ; preds = %4, %colorsegs_free.exit
  call void @llvm.lifetime.end.p0(i64 64, ptr nonnull %6) #27
  call void @llvm.lifetime.end.p0(i64 32, ptr nonnull %5) #27
  ret i32 %11
}